; Function Attrs: mustprogress nofree norecurse nosync nounwind memory(readwrite, inaccessiblemem: none) uwtable
define hidden void @_ZN16bound_propagator7del_varEj(ptr nocapture noundef nonnull readonly align 8 dereferenceable(280) %this, i32 noundef %x) local_unnamed_addr #8 align 2 {
entry:
  %m_dead = getelementptr inbounds i8, ptr %this, i64 96
  %0 = load ptr, ptr %m_dead, align 8
  %idxprom.i = zext i32 %x to i64
  %arrayidx.i = getelementptr inbounds i8, ptr %0, i64 %idxprom.i
  store i8 1, ptr %arrayidx.i, align 1
  %m_watches = getelementptr inbounds i8, ptr %this, i64 120
  %1 = load ptr, ptr %m_watches, align 8
  %arrayidx.i6 = getelementptr inbounds %class.svector.2, ptr %1, i64 %idxprom.i
  %2 = load ptr, ptr %arrayidx.i6, align 8
  %cmp.i.i = icmp eq ptr %2, null
  br i1 %cmp.i.i, label %for.end, label %_ZN6vectorIjLb0EjE3endEv.exit

_ZN6vectorIjLb0EjE3endEv.exit:                    ; preds = %entry
  %arrayidx.i.i = getelementptr inbounds i8, ptr %2, i64 -4
  %3 = load i32, ptr %arrayidx.i.i, align 4
  %4 = zext i32 %3 to i64
  %add.ptr.i = getelementptr inbounds i32, ptr %2, i64 %4
  %cmp.not9 = icmp eq i32 %3, 0
  br i1 %cmp.not9, label %for.end, label %for.body.lr.ph

for.body.lr.ph:                                   ; preds = %_ZN6vectorIjLb0EjE3endEv.exit
  %m_constraints = getelementptr inbounds i8, ptr %this, i64 80
  br label %for.body

for.body:                                         ; preds = %for.body.lr.ph, %for.body
  %__begin1.010 = phi ptr [ %2, %for.body.lr.ph ], [ %incdec.ptr, %for.body ]
  %5 = load i32, ptr %__begin1.010, align 4
  %6 = load ptr, ptr %m_constraints, align 8
  %idxprom.i7 = zext i32 %5 to i64
  %arrayidx.i8 = getelementptr inbounds %"class.bound_propagator::constraint", ptr %6, i64 %idxprom.i7
  %bf.load = load i8, ptr %arrayidx.i8, align 8
  %bf.set = or i8 %bf.load, 4
  store i8 %bf.set, ptr %arrayidx.i8, align 8
  %incdec.ptr = getelementptr inbounds i8, ptr %__begin1.010, i64 4
  %cmp.not = icmp eq ptr %incdec.ptr, %add.ptr.i
  br i1 %cmp.not, label %for.end, label %for.body

for.end:                                          ; preds = %for.body, %entry, %_ZN6vectorIjLb0EjE3endEv.exit
  ret void
}